target datalayout = "e-m:e-p270:32:32-p271:32:32-p272:64:64-i64:64-i128:128-f80:128-n8:16:32:64-S128"
target triple = "x86_64-pc-linux-gnu"

%struct.DropStmt = type { i32, ptr, i32, i32, i8, i8 }

@.str.45 = private unnamed_addr constant [24 x i8] c"DROP INDEX CONCURRENTLY\00", align 1

; Function Attrs: nounwind uwtable
define internal void @ExecDropStmt(ptr noundef %0, i1 noundef zeroext %1) #0 {
  %3 = alloca ptr, align 8
  %4 = alloca i8, align 1
  store ptr %0, ptr %3, align 8
  %5 = zext i1 %1 to i8
  store i8 %5, ptr %4, align 1
  %6 = load ptr, ptr %3, align 8
  %7 = getelementptr inbounds nuw %struct.DropStmt, ptr %6, i32 0, i32 2
  %8 = load i32, ptr %7, align 8
  switch i32 %8, label %20 [
    i32 20, label %9
    i32 41, label %18
    i32 37, label %18
    i32 51, label %18
    i32 23, label %18
    i32 18, label %18
  ]

9:                                                ; preds = %2
  %10 = load ptr, ptr %3, align 8
  %11 = getelementptr inbounds nuw %struct.DropStmt, ptr %10, i32 0, i32 5
  %12 = load i8, ptr %11, align 1, !range !4, !noundef !5
  %13 = trunc i8 %12 to i1
  br i1 %13, label %14, label %17

14:                                               ; preds = %9
  %15 = load i8, ptr %4, align 1, !range !4, !noundef !5
  %16 = trunc i8 %15 to i1
  call void @PreventInTransactionBlock(i1 noundef zeroext %16, ptr noundef @.str.45)
  br label %17

17:                                               ; preds = %14, %9
  br label %18

18:                                               ; preds = %2, %2, %2, %2, %2, %17
  %19 = load ptr, ptr %3, align 8
  call void @RemoveRelations(ptr noundef %19)
  br label %22

20:                                               ; preds = %2
  %21 = load ptr, ptr %3, align 8
  call void @RemoveObjects(ptr noundef %21)
  br label %22

22:                                               ; preds = %20, %18
  ret void
}