; Function Attrs: nounwind uwtable
define internal fastcc void @ExecDropStmt(ptr noundef %0, i1 noundef zeroext %1) unnamed_addr #0 {
  %3 = getelementptr inbounds nuw i8, ptr %0, i64 16
  %4 = load i32, ptr %3, align 8
  switch i32 %4, label %11 [
    i32 20, label %5
    i32 41, label %10
    i32 37, label %10
    i32 51, label %10
    i32 23, label %10
    i32 18, label %10
  ]

5:                                                ; preds = %2
  %6 = getelementptr inbounds nuw i8, ptr %0, i64 25
  %7 = load i8, ptr %6, align 1, !range !4, !noundef !5
  %8 = trunc nuw i8 %7 to i1
  br i1 %8, label %9, label %10

9:                                                ; preds = %5
  tail call void @PreventInTransactionBlock(i1 noundef zeroext %1, ptr noundef nonnull @.str.45) #11
  br label %10

10:                                               ; preds = %5, %9, %2, %2, %2, %2, %2
  tail call void @RemoveRelations(ptr noundef nonnull %0) #11
  br label %12

11:                                               ; preds = %2
  tail call void @RemoveObjects(ptr noundef nonnull %0) #11
  br label %12

12:                                               ; preds = %11, %10
  ret void
}